target datalayout = "e-m:e-p270:32:32-p271:32:32-p272:64:64-i64:64-i128:128-f80:128-n8:16:32:64-S128"
target triple = "x86_64-pc-linux-gnu"

; Function Attrs: nounwind uwtable
define hidden void @KeccakP1600_Initialize(ptr noundef %0) #0 {
  %2 = alloca ptr, align 8
  store ptr %0, ptr %2, align 8, !tbaa !4
  %3 = load ptr, ptr %2, align 8, !tbaa !4
  call void @llvm.memset.p0.i64(ptr align 1 %3, i8 0, i64 200, i1 false)
  %4 = load ptr, ptr %2, align 8, !tbaa !4
  %5 = getelementptr inbounds i64, ptr %4, i64 1
  store i64 -1, ptr %5, align 8, !tbaa !8
  %6 = load ptr, ptr %2, align 8, !tbaa !4
  %7 = getelementptr inbounds i64, ptr %6, i64 2
  store i64 -1, ptr %7, align 8, !tbaa !8
  %8 = load ptr, ptr %2, align 8, !tbaa !4
  %9 = getelementptr inbounds i64, ptr %8, i64 8
  store i64 -1, ptr %9, align 8, !tbaa !8
  %10 = load ptr, ptr %2, align 8, !tbaa !4
  %11 = getelementptr inbounds i64, ptr %10, i64 12
  store i64 -1, ptr %11, align 8, !tbaa !8
  %12 = load ptr, ptr %2, align 8, !tbaa !4
  %13 = getelementptr inbounds i64, ptr %12, i64 17
  store i64 -1, ptr %13, align 8, !tbaa !8
  %14 = load ptr, ptr %2, align 8, !tbaa !4
  %15 = getelementptr inbounds i64, ptr %14, i64 20
  store i64 -1, ptr %15, align 8, !tbaa !8
  ret void
}